	.section	__TEXT,__text,regular,pure_instructions
	.build_version macos, 13, 0	sdk_version 13, 1
	.globl	_get_value                      ## -- Begin function get_value
	.p2align	4, 0x90
_get_value:                             ## @get_value
	.cfi_startproc
## %bb.0:
	pushq	%rbp
	.cfi_def_cfa_offset 16
	.cfi_offset %rbp, -16
	movq	%rsp, %rbp
	.cfi_def_cfa_register %rbp
	movl	$10, -4(%rbp)
	movl	-4(%rbp), %eax
	popq	%rbp
	retq
	.cfi_endproc
                                        ## -- End function
	.globl	_main                           ## -- Begin function main
	.p2align	4, 0x90
_main:                                  ## @main
	.cfi_startproc
## %bb.0:
	pushq	%rbp
	.cfi_def_cfa_offset 16
	.cfi_offset %rbp, -16
	movq	%rsp, %rbp
	.cfi_def_cfa_register %rbp
	callq	_get_value
	movl	%eax, %esi
	leaq	L_.str(%rip), %rdi
	movb	$0, %al
	callq	_printf
	xorl	%eax, %eax
	popq	%rbp
	retq
	.cfi_endproc
                                        ## -- End function
	.section	__TEXT,__cstring,cstring_literals
L_.str:                                 ## @.str
	.asciz	"get value: %d\n"

.subsections_via_symbols
